; Function Attrs: mustprogress nounwind uwtable
define internal fastcc void @_ZN4absl12lts_2024072217internal_statusor12StatusOrDataISt10shared_ptrIN9grpc_core12_GLOBAL__N_16GrpcLb27NullLbTokenEndpointIteratorEEED2Ev(ptr noundef nonnull readonly align 8 captures(none) dereferenceable(24) %0) unnamed_addr #17 align 2 personality ptr @__gxx_personality_v0 {
  %.val = load i64, ptr %0, align 8, !tbaa !75
  %2 = icmp eq i64 %.val, 1
  br i1 %2, label %_ZN4absl12lts_202407226StatusD2Ev.exit, label %25

_ZN4absl12lts_202407226StatusD2Ev.exit:           ; preds = %1
  %3 = getelementptr inbounds nuw i8, ptr %0, i64 16
  %.val1 = load ptr, ptr %3, align 8, !tbaa !130
  %.not.i.i2 = icmp eq ptr %.val1, null
  br i1 %.not.i.i2, label %_ZNSt12__shared_ptrIN9grpc_core12_GLOBAL__N_16GrpcLb27NullLbTokenEndpointIteratorELN9__gnu_cxx12_Lock_policyE2EED2Ev.exit, label %4

4:                                                ; preds = %_ZN4absl12lts_202407226StatusD2Ev.exit
  %5 = getelementptr inbounds nuw i8, ptr %.val1, i64 8
  %6 = load atomic i64, ptr %5 acquire, align 8
  %7 = icmp eq i64 %6, 4294967297
  %8 = trunc i64 %6 to i32
  br i1 %7, label %9, label %17

9:                                                ; preds = %4
  store i32 0, ptr %5, align 8, !tbaa !133
  %10 = getelementptr inbounds nuw i8, ptr %.val1, i64 12
  store i32 0, ptr %10, align 4, !tbaa !135
  %11 = load ptr, ptr %.val1, align 8, !tbaa !6
  %12 = getelementptr inbounds nuw i8, ptr %11, i64 16
  %13 = load ptr, ptr %12, align 8
  tail call void %13(ptr noundef nonnull align 8 dereferenceable(16) %.val1) #42
  %14 = load ptr, ptr %.val1, align 8, !tbaa !6
  %15 = getelementptr inbounds nuw i8, ptr %14, i64 24
  %16 = load ptr, ptr %15, align 8
  tail call void %16(ptr noundef nonnull align 8 dereferenceable(16) %.val1) #42
  br label %_ZNSt12__shared_ptrIN9grpc_core12_GLOBAL__N_16GrpcLb27NullLbTokenEndpointIteratorELN9__gnu_cxx12_Lock_policyE2EED2Ev.exit

17:                                               ; preds = %4
  %18 = load i8, ptr @__libc_single_threaded, align 1, !tbaa !36
  %.not.i.i.i = icmp eq i8 %18, 0
  br i1 %.not.i.i.i, label %21, label %19

19:                                               ; preds = %17
  %20 = add nsw i32 %8, -1
  store i32 %20, ptr %5, align 4, !tbaa !26
  br label %_ZN9__gnu_cxx27__exchange_and_add_dispatchEPii.exit.i.i.i

21:                                               ; preds = %17
  %22 = atomicrmw volatile add ptr %5, i32 -1 acq_rel, align 4
  br label %_ZN9__gnu_cxx27__exchange_and_add_dispatchEPii.exit.i.i.i

_ZN9__gnu_cxx27__exchange_and_add_dispatchEPii.exit.i.i.i: ; preds = %21, %19
  %.0.i.i.i.i = phi i32 [ %8, %19 ], [ %22, %21 ]
  %23 = icmp eq i32 %.0.i.i.i.i, 1
  br i1 %23, label %24, label %_ZNSt12__shared_ptrIN9grpc_core12_GLOBAL__N_16GrpcLb27NullLbTokenEndpointIteratorELN9__gnu_cxx12_Lock_policyE2EED2Ev.exit, !prof !74

24:                                               ; preds = %_ZN9__gnu_cxx27__exchange_and_add_dispatchEPii.exit.i.i.i
  tail call void @_ZNSt16_Sp_counted_baseILN9__gnu_cxx12_Lock_policyE2EE24_M_release_last_use_coldEv(ptr noundef nonnull align 8 dereferenceable(16) %.val1) #42
  br label %_ZNSt12__shared_ptrIN9grpc_core12_GLOBAL__N_16GrpcLb27NullLbTokenEndpointIteratorELN9__gnu_cxx12_Lock_policyE2EED2Ev.exit

25:                                               ; preds = %1
  %26 = and i64 %.val, 1
  %.not.i.i3 = icmp eq i64 %26, 0
  br i1 %.not.i.i3, label %27, label %_ZNSt12__shared_ptrIN9grpc_core12_GLOBAL__N_16GrpcLb27NullLbTokenEndpointIteratorELN9__gnu_cxx12_Lock_policyE2EED2Ev.exit

27:                                               ; preds = %25
  %28 = inttoptr i64 %.val to ptr
  invoke void @_ZNK4absl12lts_2024072215status_internal9StatusRep5UnrefEv(ptr noundef nonnull align 8 dereferenceable(48) %28)
          to label %_ZNSt12__shared_ptrIN9grpc_core12_GLOBAL__N_16GrpcLb27NullLbTokenEndpointIteratorELN9__gnu_cxx12_Lock_policyE2EED2Ev.exit unwind label %29

29:                                               ; preds = %27
  %30 = landingpad { ptr, i32 }
          catch ptr null
  %31 = extractvalue { ptr, i32 } %30, 0
  tail call void @__clang_call_terminate(ptr %31) #45
  unreachable

_ZNSt12__shared_ptrIN9grpc_core12_GLOBAL__N_16GrpcLb27NullLbTokenEndpointIteratorELN9__gnu_cxx12_Lock_policyE2EED2Ev.exit: ; preds = %27, %25, %24, %_ZN9__gnu_cxx27__exchange_and_add_dispatchEPii.exit.i.i.i, %9, %_ZN4absl12lts_202407226StatusD2Ev.exit
  ret void
}